; Function Attrs: nounwind uwtable
define internal range(i32 0, 2) i32 @test_afalg_aes_cbc(i32 noundef %0) #0 {
  %2 = alloca [49 x i8], align 16
  %3 = alloca [49 x i8], align 16
  %4 = alloca i32, align 4
  %5 = alloca i32, align 4
  %6 = alloca i32, align 4
  %7 = alloca i32, align 4
  call void @llvm.lifetime.start.p0(i64 49, ptr nonnull %2) #3
  call void @llvm.lifetime.start.p0(i64 49, ptr nonnull %3) #3
  call void @llvm.lifetime.start.p0(i64 4, ptr nonnull %4) #3
  call void @llvm.lifetime.start.p0(i64 4, ptr nonnull %5) #3
  call void @llvm.lifetime.start.p0(i64 4, ptr nonnull %6) #3
  call void @llvm.lifetime.start.p0(i64 4, ptr nonnull %7) #3
  switch i32 %0, label %14 [
    i32 0, label %8
    i32 1, label %10
    i32 2, label %12
  ]

8:                                                ; preds = %1
  %9 = tail call ptr @EVP_aes_128_cbc() #3
  br label %14

10:                                               ; preds = %1
  %11 = tail call ptr @EVP_aes_192_cbc() #3
  br label %14

12:                                               ; preds = %1
  %13 = tail call ptr @EVP_aes_256_cbc() #3
  br label %14

14:                                               ; preds = %1, %12, %10, %8
  %.014 = phi ptr [ %13, %12 ], [ %11, %10 ], [ %9, %8 ], [ null, %1 ]
  %.013 = phi ptr [ @test_afalg_aes_cbc.encresult_256, %12 ], [ @test_afalg_aes_cbc.encresult_192, %10 ], [ @test_afalg_aes_cbc.encresult_128, %8 ], [ null, %1 ]
  %15 = tail call ptr @EVP_CIPHER_CTX_new() #3
  %16 = tail call i32 @test_ptr(ptr noundef nonnull @.str.1, i32 noundef 82, ptr noundef nonnull @.str.5, ptr noundef %15) #3
  %.not = icmp eq i32 %16, 0
  br i1 %.not, label %74, label %17

17:                                               ; preds = %14
  %18 = load ptr, ptr @e, align 8, !tbaa !4
  %19 = tail call i32 @EVP_CipherInit_ex(ptr noundef %15, ptr noundef %.014, ptr noundef %18, ptr noundef nonnull @test_afalg_aes_cbc.key, ptr noundef nonnull @test_afalg_aes_cbc.iv, i32 noundef 1) #3
  %20 = icmp ne i32 %19, 0
  %21 = zext i1 %20 to i32
  %22 = tail call i32 @test_true(ptr noundef nonnull @.str.1, i32 noundef 85, ptr noundef nonnull @.str.6, i32 noundef %21) #3
  %.not16 = icmp eq i32 %22, 0
  br i1 %.not16, label %73, label %23

23:                                               ; preds = %17
  %24 = call i32 @EVP_CipherUpdate(ptr noundef %15, ptr noundef nonnull %2, ptr noundef nonnull %4, ptr noundef nonnull @test_afalg_aes_cbc.in, i32 noundef 17) #3
  %25 = icmp ne i32 %24, 0
  %26 = zext i1 %25 to i32
  %27 = call i32 @test_true(ptr noundef nonnull @.str.1, i32 noundef 86, ptr noundef nonnull @.str.7, i32 noundef %26) #3
  %.not17 = icmp eq i32 %27, 0
  br i1 %.not17, label %73, label %28

28:                                               ; preds = %23
  %29 = load i32, ptr %4, align 4, !tbaa !9
  %30 = sext i32 %29 to i64
  %31 = getelementptr inbounds i8, ptr %2, i64 %30
  %32 = call i32 @EVP_CipherFinal_ex(ptr noundef %15, ptr noundef nonnull %31, ptr noundef nonnull %5) #3
  %33 = icmp ne i32 %32, 0
  %34 = zext i1 %33 to i32
  %35 = call i32 @test_true(ptr noundef nonnull @.str.1, i32 noundef 87, ptr noundef nonnull @.str.8, i32 noundef %34) #3
  %.not18 = icmp eq i32 %35, 0
  br i1 %.not18, label %73, label %36

36:                                               ; preds = %28
  %37 = load i32, ptr %5, align 4, !tbaa !9
  %38 = load i32, ptr %4, align 4, !tbaa !9
  %39 = add nsw i32 %38, %37
  store i32 %39, ptr %4, align 4, !tbaa !9
  %40 = call i32 @test_mem_eq(ptr noundef nonnull @.str.1, i32 noundef 91, ptr noundef nonnull @.str.9, ptr noundef nonnull @.str.10, ptr noundef %.013, i64 noundef 17, ptr noundef nonnull %2, i64 noundef 17) #3
  %.not19 = icmp eq i32 %40, 0
  br i1 %.not19, label %73, label %41

41:                                               ; preds = %36
  %42 = call i32 @EVP_CIPHER_CTX_reset(ptr noundef %15) #3
  %43 = icmp ne i32 %42, 0
  %44 = zext i1 %43 to i32
  %45 = call i32 @test_true(ptr noundef nonnull @.str.1, i32 noundef 94, ptr noundef nonnull @.str.11, i32 noundef %44) #3
  %.not20 = icmp eq i32 %45, 0
  br i1 %.not20, label %73, label %46

46:                                               ; preds = %41
  %47 = load ptr, ptr @e, align 8, !tbaa !4
  %48 = call i32 @EVP_CipherInit_ex(ptr noundef %15, ptr noundef %.014, ptr noundef %47, ptr noundef nonnull @test_afalg_aes_cbc.key, ptr noundef nonnull @test_afalg_aes_cbc.iv, i32 noundef 0) #3
  %49 = icmp ne i32 %48, 0
  %50 = zext i1 %49 to i32
  %51 = call i32 @test_true(ptr noundef nonnull @.str.1, i32 noundef 95, ptr noundef nonnull @.str.12, i32 noundef %50) #3
  %.not21 = icmp eq i32 %51, 0
  br i1 %.not21, label %73, label %52

52:                                               ; preds = %46
  %53 = load i32, ptr %4, align 4, !tbaa !9
  %54 = call i32 @EVP_CipherUpdate(ptr noundef %15, ptr noundef nonnull %3, ptr noundef nonnull %6, ptr noundef nonnull %2, i32 noundef %53) #3
  %55 = icmp ne i32 %54, 0
  %56 = zext i1 %55 to i32
  %57 = call i32 @test_true(ptr noundef nonnull @.str.1, i32 noundef 96, ptr noundef nonnull @.str.13, i32 noundef %56) #3
  %.not22 = icmp eq i32 %57, 0
  br i1 %.not22, label %73, label %58

58:                                               ; preds = %52
  %59 = load i32, ptr %6, align 4, !tbaa !9
  %60 = sext i32 %59 to i64
  %61 = getelementptr inbounds i8, ptr %3, i64 %60
  %62 = call i32 @EVP_CipherFinal_ex(ptr noundef %15, ptr noundef nonnull %61, ptr noundef nonnull %7) #3
  %63 = icmp ne i32 %62, 0
  %64 = zext i1 %63 to i32
  %65 = call i32 @test_true(ptr noundef nonnull @.str.1, i32 noundef 97, ptr noundef nonnull @.str.14, i32 noundef %64) #3
  %.not23 = icmp eq i32 %65, 0
  br i1 %.not23, label %73, label %66

66:                                               ; preds = %58
  %67 = load i32, ptr %7, align 4, !tbaa !9
  %68 = load i32, ptr %6, align 4, !tbaa !9
  %69 = add nsw i32 %68, %67
  store i32 %69, ptr %6, align 4, !tbaa !9
  %70 = call i32 @test_int_eq(ptr noundef nonnull @.str.1, i32 noundef 101, ptr noundef nonnull @.str.15, ptr noundef nonnull @.str.16, i32 noundef %69, i32 noundef 17) #3
  %.not24 = icmp eq i32 %70, 0
  br i1 %.not24, label %73, label %71

71:                                               ; preds = %66
  %72 = call i32 @test_mem_eq(ptr noundef nonnull @.str.1, i32 noundef 102, ptr noundef nonnull @.str.17, ptr noundef nonnull @.str.18, ptr noundef nonnull %3, i64 noundef 17, ptr noundef nonnull @test_afalg_aes_cbc.in, i64 noundef 17) #3
  %.not25 = icmp ne i32 %72, 0
  %spec.select = zext i1 %.not25 to i32
  br label %73

73:                                               ; preds = %71, %66, %41, %46, %52, %58, %36, %17, %23, %28
  %.0 = phi i32 [ 0, %66 ], [ 0, %58 ], [ 0, %52 ], [ 0, %46 ], [ 0, %41 ], [ 0, %36 ], [ 0, %28 ], [ 0, %23 ], [ 0, %17 ], [ %spec.select, %71 ]
  call void @EVP_CIPHER_CTX_free(ptr noundef %15) #3
  br label %74

74:                                               ; preds = %14, %73
  %.015 = phi i32 [ %.0, %73 ], [ 0, %14 ]
  call void @llvm.lifetime.end.p0(i64 4, ptr nonnull %7) #3
  call void @llvm.lifetime.end.p0(i64 4, ptr nonnull %6) #3
  call void @llvm.lifetime.end.p0(i64 4, ptr nonnull %5) #3
  call void @llvm.lifetime.end.p0(i64 4, ptr nonnull %4) #3
  call void @llvm.lifetime.end.p0(i64 49, ptr nonnull %3) #3
  call void @llvm.lifetime.end.p0(i64 49, ptr nonnull %2) #3
  ret i32 %.015
}